; Function Attrs: mustprogress uwtable
define dso_local void @_ZN4Luau7CodeGen18translateInstLoadNERNS0_9IrBuilderEPKj(ptr noundef nonnull align 8 dereferenceable(752) %0, ptr noundef readonly captures(none) %1) local_unnamed_addr #0 {
  %3 = load i32, ptr %1, align 4, !tbaa !4
  %4 = lshr i32 %3, 8
  %5 = trunc i32 %4 to i8
  %6 = tail call i32 @_ZN4Luau7CodeGen9IrBuilder5vmRegEh(ptr noundef nonnull align 8 dereferenceable(752) %0, i8 noundef zeroext %5)
  %7 = load i32, ptr %1, align 4, !tbaa !4
  %8 = ashr i32 %7, 16
  %9 = sitofp i32 %8 to double
  %10 = tail call i32 @_ZN4Luau7CodeGen9IrBuilder11constDoubleEd(ptr noundef nonnull align 8 dereferenceable(752) %0, double noundef %9)
  %11 = tail call i32 @_ZN4Luau7CodeGen9IrBuilder4instENS0_5IrCmdENS0_4IrOpES3_(ptr noundef nonnull align 8 dereferenceable(752) %0, i8 noundef zeroext 15, i32 %6, i32 %10)
  %12 = tail call i32 @_ZN4Luau7CodeGen9IrBuilder5vmRegEh(ptr noundef nonnull align 8 dereferenceable(752) %0, i8 noundef zeroext %5)
  %13 = tail call i32 @_ZN4Luau7CodeGen9IrBuilder8constTagEh(ptr noundef nonnull align 8 dereferenceable(752) %0, i8 noundef zeroext 3)
  %14 = tail call i32 @_ZN4Luau7CodeGen9IrBuilder4instENS0_5IrCmdENS0_4IrOpES3_(ptr noundef nonnull align 8 dereferenceable(752) %0, i8 noundef zeroext 12, i32 %12, i32 %13)
  ret void
}